Certificate:
    Data:
        Version: 3 (0x2)
        Serial Number:
            85:ed:66:47:56:bc:dc:2a:b0:7a:aa:a5:d5:af:e4:98
    Signature Algorithm: sha256WithRSAEncryption
        Issuer: CN=ChangeMe
        Validity
            Not Before: May 22 09:30:24 2019 GMT
            Not After : May 19 09:30:24 2029 GMT
        Subject: CN=server
        Subject Public Key Info:
            Public Key Algorithm: rsaEncryption
                Public-Key: (2048 bit)
                Modulus:
                    00:eb:ed:95:0d:a1:f6:ed:9c:7f:a1:6d:1c:9d:67:
                    a9:6e:55:9c:86:d4:2f:66:80:b1:13:78:c3:c6:cb:
                    bb:6d:24:5a:bd:3f:cc:08:7d:82:29:5e:fb:e8:f1:
                    e3:96:02:10:8c:d1:50:53:43:25:38:b1:4a:f2:d7:
                    f3:0d:2f:e9:da:c2:9e:c8:ca:02:71:91:94:f7:35:
                    c0:d0:d6:12:fc:87:e7:d7:6b:48:17:df:37:f5:18:
                    fc:31:22:d3:a5:f5:47:fd:57:98:c1:f3:13:1b:de:
                    a7:85:7b:9d:3e:c6:a4:d6:73:0a:9b:0f:ae:66:a2:
                    d1:96:71:2f:e2:54:65:cb:5d:df:68:b2:73:d3:e2:
                    79:20:49:a7:17:08:15:ab:be:41:12:04:e1:aa:bf:
                    34:8d:73:aa:76:1e:12:df:46:99:3c:4f:4d:e8:82:
                    18:0c:e6:bd:de:38:4f:7b:d7:c3:b0:d1:1e:fd:0f:
                    5a:0d:4c:79:74:7b:df:25:3c:a6:15:60:07:13:f3:
                    ab:08:8d:cc:15:98:8d:54:a7:aa:2d:66:7f:0e:c8:
                    a6:fe:cc:b4:ee:fb:31:51:59:35:a0:26:67:36:26:
                    20:7d:5d:dd:26:b2:8d:03:fd:54:e4:cc:ae:f4:fb:
                    1a:59:75:c4:42:11:25:32:5e:b1:88:36:c4:8e:ea:
                    97:db
                Exponent: 65537 (0x10001)
        X509v3 extensions:
            X509v3 Basic Constraints: 
                CA:FALSE
            X509v3 Subject Key Identifier: 
                7C:FC:9B:10:D4:A8:C0:B5:F4:50:A1:2D:C8:EE:71:2A:41:D0:7B:2F
            X509v3 Authority Key Identifier: 
                keyid:28:6C:E5:F7:01:D4:48:4F:80:7F:64:86:E4:52:E3:CB:EF:17:2C:D7
                DirName:/CN=ChangeMe
                serial:D0:E6:B9:9E:00:A1:CD:0C

            X509v3 Extended Key Usage: 
                TLS Web Server Authentication
            X509v3 Key Usage: 
                Digital Signature, Key Encipherment
            X509v3 Subject Alternative Name: 
                DNS:server
    Signature Algorithm: sha256WithRSAEncryption
         b8:18:0d:f4:6e:15:b8:06:58:03:ff:d0:0b:9a:e8:f3:db:c0:
         1c:bb:4e:e8:20:84:83:2a:b9:32:7f:0a:ac:26:93:f7:5f:c0:
         fb:c0:b0:a1:a3:bd:d6:ea:a5:b9:73:e7:19:c3:bb:68:ba:ca:
         c1:d2:a0:8c:15:81:78:0a:09:89:12:c9:fa:3c:37:7e:0e:82:
         7e:fd:5d:eb:7b:7b:f3:1a:97:45:47:ec:ce:d3:68:d7:b7:2d:
         b3:91:6a:03:00:be:b7:01:23:42:fd:03:d2:0b:23:b1:df:0a:
         36:f1:7e:45:28:92:bb:bf:d9:da:09:ac:de:df:4b:cd:43:b2:
         02:f4:04:53:7c:34:f9:d9:0e:84:ac:86:bc:79:68:df:4f:14:
         72:6e:e5:02:ff:d0:5a:97:77:c6:d3:1b:a1:b4:be:0a:13:14:
         b9:7f:dc:4d:f5:81:38:bf:27:a1:64:e3:12:e1:49:09:d3:32:
         49:e9:82:fa:46:7a:8c:07:b5:8e:8b:6a:22:d1:57:74:8d:ab:
         29:1a:34:44:e9:11:92:ae:af:77:02:fe:7d:c6:b1:27:18:c6:
         3c:55:6f:c6:fe:5f:14:80:72:60:5b:3a:23:4d:f6:b4:cb:2f:
         24:ac:c5:7a:40:0a:dc:98:e4:48:08:0b:34:41:b3:e4:a8:c3:
         84:28:64:52
-----BEGIN CERTIFICATE-----
MIIDVzCCAj+gAwIBAgIRAIXtZkdWvNwqsHqqpdWv5JgwDQYJKoZIhvcNAQELBQAw
EzERMA8GA1UEAwwIQ2hhbmdlTWUwHhcNMTkwNTIyMDkzMDI0WhcNMjkwNTE5MDkz
MDI0WjARMQ8wDQYDVQQDDAZzZXJ2ZXIwggEiMA0GCSqGSIb3DQEBAQUAA4IBDwAw
ggEKAoIBAQDr7ZUNofbtnH+hbRydZ6luVZyG1C9mgLETeMPGy7ttJFq9P8wIfYIp
Xvvo8eOWAhCM0VBTQyU4sUry1/MNL+nawp7IygJxkZT3NcDQ1hL8h+fXa0gX3zf1
GPwxItOl9Uf9V5jB8xMb3qeFe50+xqTWcwqbD65motGWcS/iVGXLXd9osnPT4nkg
SacXCBWrvkESBOGqvzSNc6p2HhLfRpk8T03oghgM5r3eOE9718Ow0R79D1oNTHl0
e98lPKYVYAcT86sIjcwVmI1Up6otZn8OyKb+zLTu+zFRWTWgJmc2JiB9Xd0mso0D
/VTkzK70+xpZdcRCESUyXrGINsSO6pfbAgMBAAGjgacwgaQwCQYDVR0TBAIwADAd
BgNVHQ4EFgQUfPybENSowLX0UKEtyO5xKkHQey8wQwYDVR0jBDwwOoAUKGzl9wHU
SE+Af2SG5FLjy+8XLNehF6QVMBMxETAPBgNVBAMMCENoYW5nZU1lggkA0Oa5ngCh
zQwwEwYDVR0lBAwwCgYIKwYBBQUHAwEwCwYDVR0PBAQDAgWgMBEGA1UdEQQKMAiC
BnNlcnZlcjANBgkqhkiG9w0BAQsFAAOCAQEAuBgN9G4VuAZYA//QC5ro89vAHLtO
6CCEgyq5Mn8KrCaT91/A+8CwoaO91uqluXPnGcO7aLrKwdKgjBWBeAoJiRLJ+jw3
fg6Cfv1d63t78xqXRUfsztNo17cts5FqAwC+twEjQv0D0gsjsd8KNvF+RSiSu7/Z
2gms3t9LzUOyAvQEU3w0+dkOhKyGvHlo308Ucm7lAv/QWpd3xtMbobS+ChMUuX/c
TfWBOL8noWTjEuFJCdMySemC+kZ6jAe1jotqItFXdI2rKRo0ROkRkq6vdwL+fcax
JxjGPFVvxv5fFIByYFs6I032tMsvJKzFekAK3JjkSAgLNEGz5KjDhChkUg==
-----END CERTIFICATE-----
